target datalayout = "e-m:e-p270:32:32-p271:32:32-p272:64:64-i64:64-i128:128-f80:128-n8:16:32:64-S128"
target triple = "x86_64-unknown-linux-gnu"

%"class.icu_75::CollationElementIterator" = type { %"class.icu_75::UObject", ptr, ptr, i32, i8, ptr, %"class.icu_75::UnicodeString" }
%"class.icu_75::UObject" = type { ptr }
%"class.icu_75::UnicodeString" = type { %"class.icu_75::Replaceable", %"union.icu_75::UnicodeString::StackBufferOrFields" }
%"class.icu_75::Replaceable" = type { %"class.icu_75::UObject" }
%"union.icu_75::UnicodeString::StackBufferOrFields" = type { %struct.anon.0, [32 x i8] }
%struct.anon.0 = type { i16, i32, i32, ptr }
%"class.icu_75::CollationIterator" = type <{ %"class.icu_75::UObject", ptr, ptr, %"class.icu_75::CollationIterator::CEBuffer", i32, [4 x i8], ptr, i32, i8, [3 x i8] }>
%"class.icu_75::CollationIterator::CEBuffer" = type { i32, %"class.icu_75::MaybeStackArray" }
%"class.icu_75::MaybeStackArray" = type { ptr, i32, i8, [40 x i64] }

; Function Attrs: mustprogress nounwind uwtable
define linkonce_odr void @_ZN6icu_7517CollationIterator8clearCEsEv(ptr noundef nonnull align 8 dereferenceable(389) %this) #0 comdat align 2 {
entry:
  %this.addr = alloca ptr, align 8
  store ptr %this, ptr %this.addr, align 8
  %this1 = load ptr, ptr %this.addr, align 8
  %ceBuffer = getelementptr inbounds %"class.icu_75::CollationIterator", ptr %this1, i32 0, i32 3
  %length = getelementptr inbounds %"class.icu_75::CollationIterator::CEBuffer", ptr %ceBuffer, i32 0, i32 0
  store i32 0, ptr %length, align 8
  %cesIndex = getelementptr inbounds %"class.icu_75::CollationIterator", ptr %this1, i32 0, i32 4
  store i32 0, ptr %cesIndex, align 8
  ret void
}

; Function Attrs: mustprogress nounwind uwtable
define internal noundef i32 @_ZN6icu_7512_GLOBAL__N_113getSecondHalfEjj(i32 noundef %p, i32 noundef %lower32) #0 {
entry:
  %p.addr = alloca i32, align 4
  %lower32.addr = alloca i32, align 4
  store i32 %p, ptr %p.addr, align 4
  store i32 %lower32, ptr %lower32.addr, align 4
  %0 = load i32, ptr %p.addr, align 4
  %shl = shl i32 %0, 16
  %1 = load i32, ptr %lower32.addr, align 4
  %shr = lshr i32 %1, 8
  %and = and i32 %shr, 65280
  %or = or i32 %shl, %and
  %2 = load i32, ptr %lower32.addr, align 4
  %and1 = and i32 %2, 63
  %or2 = or i32 %or, %and1
  ret i32 %or2
}

; Function Attrs: mustprogress nounwind uwtable
define internal noundef i32 @_ZN6icu_7512_GLOBAL__N_112getFirstHalfEjj(i32 noundef %p, i32 noundef %lower32) #0 {
entry:
  %p.addr = alloca i32, align 4
  %lower32.addr = alloca i32, align 4
  store i32 %p, ptr %p.addr, align 4
  store i32 %lower32, ptr %lower32.addr, align 4
  %0 = load i32, ptr %p.addr, align 4
  %and = and i32 %0, -65536
  %1 = load i32, ptr %lower32.addr, align 4
  %shr = lshr i32 %1, 16
  %and1 = and i32 %shr, 65280
  %or = or i32 %and, %and1
  %2 = load i32, ptr %lower32.addr, align 4
  %shr2 = lshr i32 %2, 8
  %and3 = and i32 %shr2, 255
  %or4 = or i32 %or, %and3
  ret i32 %or4
}

; Function Attrs: mustprogress uwtable
define linkonce_odr void @_ZN6icu_7517CollationIterator23clearCEsIfNoneRemainingEv(ptr noundef nonnull align 8 dereferenceable(389) %this) #1 comdat align 2 {
entry:
  %this.addr = alloca ptr, align 8
  store ptr %this, ptr %this.addr, align 8
  %this1 = load ptr, ptr %this.addr, align 8
  %cesIndex = getelementptr inbounds %"class.icu_75::CollationIterator", ptr %this1, i32 0, i32 4
  %0 = load i32, ptr %cesIndex, align 8
  %ceBuffer = getelementptr inbounds %"class.icu_75::CollationIterator", ptr %this1, i32 0, i32 3
  %length = getelementptr inbounds %"class.icu_75::CollationIterator::CEBuffer", ptr %ceBuffer, i32 0, i32 0
  %1 = load i32, ptr %length, align 8
  %cmp = icmp eq i32 %0, %1
  br i1 %cmp, label %if.then, label %if.end

if.then:                                          ; preds = %entry
  call void @_ZN6icu_7517CollationIterator8clearCEsEv(ptr noundef nonnull align 8 dereferenceable(389) %this1)
  br label %if.end

if.end:                                           ; preds = %if.then, %entry
  ret void
}

; Function Attrs: mustprogress nounwind uwtable
define internal noundef signext i8 @_ZL9U_FAILURE10UErrorCode(i32 noundef %code) #0 {
entry:
  %code.addr = alloca i32, align 4
  store i32 %code, ptr %code.addr, align 4
  %0 = load i32, ptr %code.addr, align 4
  %cmp = icmp sgt i32 %0, 0
  %conv = zext i1 %cmp to i8
  ret i8 %conv
}

; Function Attrs: mustprogress uwtable
define noundef i32 @_ZN6icu_7524CollationElementIterator4nextER10UErrorCode(ptr noundef nonnull align 8 dereferenceable(104) %this, ptr noundef nonnull align 4 dereferenceable(4) %status) #1 align 2 {
entry:
  %retval = alloca i32, align 4
  %this.addr = alloca ptr, align 8
  %status.addr = alloca ptr, align 8
  %oh = alloca i32, align 4
  %ce = alloca i64, align 8
  %p = alloca i32, align 4
  %lower32 = alloca i32, align 4
  %firstHalf = alloca i32, align 4
  %secondHalf = alloca i32, align 4
  store ptr %this, ptr %this.addr, align 8
  store ptr %status, ptr %status.addr, align 8
  %this1 = load ptr, ptr %this.addr, align 8
  %0 = load ptr, ptr %status.addr, align 8
  %1 = load i32, ptr %0, align 4
  %call = call noundef signext i8 @_ZL9U_FAILURE10UErrorCode(i32 noundef %1)
  %tobool = icmp ne i8 %call, 0
  br i1 %tobool, label %if.then, label %if.end

if.then:                                          ; preds = %entry
  store i32 -1, ptr %retval, align 4
  br label %return

if.end:                                           ; preds = %entry
  %dir_ = getelementptr inbounds %"class.icu_75::CollationElementIterator", ptr %this1, i32 0, i32 4
  %2 = load i8, ptr %dir_, align 4
  %conv = sext i8 %2 to i32
  %cmp = icmp sgt i32 %conv, 1
  br i1 %cmp, label %if.then2, label %if.else

if.then2:                                         ; preds = %if.end
  %otherHalf_ = getelementptr inbounds %"class.icu_75::CollationElementIterator", ptr %this1, i32 0, i32 3
  %3 = load i32, ptr %otherHalf_, align 8
  %cmp3 = icmp ne i32 %3, 0
  br i1 %cmp3, label %if.then4, label %if.end7

if.then4:                                         ; preds = %if.then2
  %otherHalf_5 = getelementptr inbounds %"class.icu_75::CollationElementIterator", ptr %this1, i32 0, i32 3
  %4 = load i32, ptr %otherHalf_5, align 8
  store i32 %4, ptr %oh, align 4
  %otherHalf_6 = getelementptr inbounds %"class.icu_75::CollationElementIterator", ptr %this1, i32 0, i32 3
  store i32 0, ptr %otherHalf_6, align 8
  %5 = load i32, ptr %oh, align 4
  store i32 %5, ptr %retval, align 4
  br label %return

if.end7:                                          ; preds = %if.then2
  br label %if.end22

if.else:                                          ; preds = %if.end
  %dir_8 = getelementptr inbounds %"class.icu_75::CollationElementIterator", ptr %this1, i32 0, i32 4
  %6 = load i8, ptr %dir_8, align 4
  %conv9 = sext i8 %6 to i32
  %cmp10 = icmp eq i32 %conv9, 1
  br i1 %cmp10, label %if.then11, label %if.else13

if.then11:                                        ; preds = %if.else
  %dir_12 = getelementptr inbounds %"class.icu_75::CollationElementIterator", ptr %this1, i32 0, i32 4
  store i8 2, ptr %dir_12, align 4
  br label %if.end21

if.else13:                                        ; preds = %if.else
  %dir_14 = getelementptr inbounds %"class.icu_75::CollationElementIterator", ptr %this1, i32 0, i32 4
  %7 = load i8, ptr %dir_14, align 4
  %conv15 = sext i8 %7 to i32
  %cmp16 = icmp eq i32 %conv15, 0
  br i1 %cmp16, label %if.then17, label %if.else19

if.then17:                                        ; preds = %if.else13
  %dir_18 = getelementptr inbounds %"class.icu_75::CollationElementIterator", ptr %this1, i32 0, i32 4
  store i8 2, ptr %dir_18, align 4
  br label %if.end20

if.else19:                                        ; preds = %if.else13
  %8 = load ptr, ptr %status.addr, align 8
  store i32 27, ptr %8, align 4
  store i32 -1, ptr %retval, align 4
  br label %return

if.end20:                                         ; preds = %if.then17
  br label %if.end21

if.end21:                                         ; preds = %if.end20, %if.then11
  br label %if.end22

if.end22:                                         ; preds = %if.end21, %if.end7
  %iter_ = getelementptr inbounds %"class.icu_75::CollationElementIterator", ptr %this1, i32 0, i32 1
  %9 = load ptr, ptr %iter_, align 8
  call void @_ZN6icu_7517CollationIterator23clearCEsIfNoneRemainingEv(ptr noundef nonnull align 8 dereferenceable(389) %9)
  %iter_23 = getelementptr inbounds %"class.icu_75::CollationElementIterator", ptr %this1, i32 0, i32 1
  %10 = load ptr, ptr %iter_23, align 8
  %11 = load ptr, ptr %status.addr, align 8
  %call24 = call noundef i64 @_ZN6icu_7517CollationIterator6nextCEER10UErrorCode(ptr noundef nonnull align 8 dereferenceable(389) %10, ptr noundef nonnull align 4 dereferenceable(4) %11)
  store i64 %call24, ptr %ce, align 8
  %12 = load i64, ptr %ce, align 8
  %cmp25 = icmp eq i64 %12, 4311744768
  br i1 %cmp25, label %if.then26, label %if.end27

if.then26:                                        ; preds = %if.end22
  store i32 -1, ptr %retval, align 4
  br label %return

if.end27:                                         ; preds = %if.end22
  %13 = load i64, ptr %ce, align 8
  %shr = ashr i64 %13, 32
  %conv28 = trunc i64 %shr to i32
  store i32 %conv28, ptr %p, align 4
  %14 = load i64, ptr %ce, align 8
  %conv29 = trunc i64 %14 to i32
  store i32 %conv29, ptr %lower32, align 4
  %15 = load i32, ptr %p, align 4
  %16 = load i32, ptr %lower32, align 4
  %call30 = call noundef i32 @_ZN6icu_7512_GLOBAL__N_112getFirstHalfEjj(i32 noundef %15, i32 noundef %16)
  store i32 %call30, ptr %firstHalf, align 4
  %17 = load i32, ptr %p, align 4
  %18 = load i32, ptr %lower32, align 4
  %call31 = call noundef i32 @_ZN6icu_7512_GLOBAL__N_113getSecondHalfEjj(i32 noundef %17, i32 noundef %18)
  store i32 %call31, ptr %secondHalf, align 4
  %19 = load i32, ptr %secondHalf, align 4
  %cmp32 = icmp ne i32 %19, 0
  br i1 %cmp32, label %if.then33, label %if.end35

if.then33:                                        ; preds = %if.end27
  %20 = load i32, ptr %secondHalf, align 4
  %or = or i32 %20, 192
  %otherHalf_34 = getelementptr inbounds %"class.icu_75::CollationElementIterator", ptr %this1, i32 0, i32 3
  store i32 %or, ptr %otherHalf_34, align 8
  br label %if.end35

if.end35:                                         ; preds = %if.then33, %if.end27
  %21 = load i32, ptr %firstHalf, align 4
  store i32 %21, ptr %retval, align 4
  br label %return

return:                                           ; preds = %if.end35, %if.then26, %if.else19, %if.then4, %if.then
  %22 = load i32, ptr %retval, align 4
  ret i32 %22
}