; Function Attrs: mustprogress uwtable
define noundef i32 @_ZN6icu_7524CollationElementIterator4nextER10UErrorCode(ptr nocapture noundef nonnull align 8 dereferenceable(104) %this, ptr noundef nonnull align 4 dereferenceable(4) %status) local_unnamed_addr #1 align 2 {
entry:
  %0 = load i32, ptr %status, align 4
  %cmp.i = icmp slt i32 %0, 1
  br i1 %cmp.i, label %if.end, label %return

if.end:                                           ; preds = %entry
  %dir_ = getelementptr inbounds i8, ptr %this, i64 28
  %1 = load i8, ptr %dir_, align 4
  %cmp = icmp sgt i8 %1, 1
  br i1 %cmp, label %if.then2, label %if.else

if.then2:                                         ; preds = %if.end
  %otherHalf_ = getelementptr inbounds i8, ptr %this, i64 24
  %2 = load i32, ptr %otherHalf_, align 8
  %cmp3.not = icmp eq i32 %2, 0
  br i1 %cmp3.not, label %if.end22, label %if.then4

if.then4:                                         ; preds = %if.then2
  store i32 0, ptr %otherHalf_, align 8
  br label %return

if.else:                                          ; preds = %if.end
  %switch = icmp ult i8 %1, 2
  br i1 %switch, label %if.end22.sink.split, label %if.else19

if.else19:                                        ; preds = %if.else
  store i32 27, ptr %status, align 4
  br label %return

if.end22.sink.split:                              ; preds = %if.else
  store i8 2, ptr %dir_, align 4
  br label %if.end22

if.end22:                                         ; preds = %if.end22.sink.split, %if.then2
  %iter_ = getelementptr inbounds i8, ptr %this, i64 8
  %3 = load ptr, ptr %iter_, align 8
  %cesIndex.i = getelementptr inbounds i8, ptr %3, i64 368
  %4 = load i32, ptr %cesIndex.i, align 8
  %ceBuffer.i = getelementptr inbounds i8, ptr %3, i64 24
  %5 = load i32, ptr %ceBuffer.i, align 8
  %cmp.i8 = icmp eq i32 %4, %5
  br i1 %cmp.i8, label %if.then.i, label %_ZN6icu_7517CollationIterator23clearCEsIfNoneRemainingEv.exit

if.then.i:                                        ; preds = %if.end22
  store i32 0, ptr %ceBuffer.i, align 8
  store i32 0, ptr %cesIndex.i, align 8
  %.pre = load ptr, ptr %iter_, align 8
  br label %_ZN6icu_7517CollationIterator23clearCEsIfNoneRemainingEv.exit

_ZN6icu_7517CollationIterator23clearCEsIfNoneRemainingEv.exit: ; preds = %if.end22, %if.then.i
  %6 = phi ptr [ %3, %if.end22 ], [ %.pre, %if.then.i ]
  %call24 = tail call noundef i64 @_ZN6icu_7517CollationIterator6nextCEER10UErrorCode(ptr noundef nonnull align 8 dereferenceable(389) %6, ptr noundef nonnull align 4 dereferenceable(4) %status)
  %cmp25 = icmp eq i64 %call24, 4311744768
  br i1 %cmp25, label %return, label %if.end27

if.end27:                                         ; preds = %_ZN6icu_7517CollationIterator23clearCEsIfNoneRemainingEv.exit
  %shr = lshr i64 %call24, 32
  %conv28 = trunc i64 %shr to i32
  %conv29 = trunc i64 %call24 to i32
  %and.i = and i32 %conv28, -65536
  %shr.i = lshr i32 %conv29, 16
  %and1.i = and i32 %shr.i, 65280
  %or.i = or disjoint i32 %and1.i, %and.i
  %shr2.i = lshr i32 %conv29, 8
  %and3.i = and i32 %shr2.i, 255
  %or4.i = or disjoint i32 %or.i, %and3.i
  %shl.i = shl i32 %conv28, 16
  %and.i10 = and i32 %shr2.i, 65280
  %or.i11 = or disjoint i32 %and.i10, %shl.i
  %and1.i12 = and i32 %conv29, 63
  %or2.i = or disjoint i32 %or.i11, %and1.i12
  %cmp32.not = icmp eq i32 %or2.i, 0
  br i1 %cmp32.not, label %return, label %if.then33

if.then33:                                        ; preds = %if.end27
  %or = or disjoint i32 %or2.i, 192
  %otherHalf_34 = getelementptr inbounds i8, ptr %this, i64 24
  store i32 %or, ptr %otherHalf_34, align 8
  br label %return

return:                                           ; preds = %if.end27, %if.then33, %_ZN6icu_7517CollationIterator23clearCEsIfNoneRemainingEv.exit, %entry, %if.else19, %if.then4
  %retval.0 = phi i32 [ %2, %if.then4 ], [ -1, %if.else19 ], [ -1, %entry ], [ -1, %_ZN6icu_7517CollationIterator23clearCEsIfNoneRemainingEv.exit ], [ %or4.i, %if.then33 ], [ %or4.i, %if.end27 ]
  ret i32 %retval.0
}